target datalayout = "e-m:e-p270:32:32-p271:32:32-p272:64:64-i64:64-i128:128-f80:128-n8:16:32:64-S128"
target triple = "x86_64-unknown-linux-gnu"

; Function Attrs: mustprogress uwtable
define hidden void @_ZN8facebook6hermes17HermesRuntimeImpl11checkStatusEN6hermes2vm15ExecutionStatusE(ptr noundef nonnull align 8 dereferenceable(184) %this, i32 noundef %status) #0 align 2 {
entry:
  %this.addr = alloca ptr, align 8
  %status.addr = alloca i32, align 4
  store ptr %this, ptr %this.addr, align 8
  store i32 %status, ptr %status.addr, align 4
  %this1 = load ptr, ptr %this.addr, align 8
  %0 = load i32, ptr %status.addr, align 4
  %cmp = icmp ne i32 %0, 0
  br i1 %cmp, label %if.then, label %if.end

if.then:                                          ; preds = %entry
  ret void

if.end:                                           ; preds = %entry
  call void @_ZN8facebook6hermes17HermesRuntimeImpl17throwPendingErrorEv(ptr noundef nonnull align 8 dereferenceable(184) %this1) #21
  unreachable
}