; Function Attrs: mustprogress uwtable
define hidden void @_ZN8facebook6hermes17HermesRuntimeImpl11checkStatusEN6hermes2vm15ExecutionStatusE(ptr noundef nonnull align 8 dereferenceable(184) %this, i32 noundef %status) local_unnamed_addr #0 align 2 {
entry:
  %cmp.not = icmp eq i32 %status, 0
  br i1 %cmp.not, label %if.end, label %if.then

if.then:                                          ; preds = %entry
  ret void

if.end:                                           ; preds = %entry
  tail call void @_ZN8facebook6hermes17HermesRuntimeImpl17throwPendingErrorEv(ptr noundef nonnull align 8 dereferenceable(184) %this) #39
  unreachable
}